; Function Attrs: mustprogress uwtable
define hidden i64 @_ZNK7nanogui12VScrollPanel14preferred_sizeEP10NVGcontext(ptr nocapture noundef nonnull readonly align 8 dereferenceable(149) %0, ptr noundef %1) unnamed_addr #0 align 2 {
  %3 = getelementptr inbounds i8, ptr %0, i64 64
  %4 = load ptr, ptr %3, align 8
  %5 = getelementptr inbounds i8, ptr %0, i64 72
  %6 = load ptr, ptr %5, align 8
  %7 = icmp eq ptr %4, %6
  br i1 %7, label %_ZN7nanogui5ArrayIiLm2EEC2Ei.exit, label %_ZN7nanoguiplERKNS_5ArrayIiLm2EEES3_.exit.critedge

_ZN7nanoguiplERKNS_5ArrayIiLm2EEES3_.exit.critedge: ; preds = %2
  %8 = load ptr, ptr %4, align 8
  %9 = load ptr, ptr %8, align 8
  %10 = getelementptr inbounds i8, ptr %9, i64 96
  %11 = load ptr, ptr %10, align 8
  %12 = tail call i64 %11(ptr noundef nonnull align 8 dereferenceable(140) %8, ptr noundef %1)
  %.sroa.26.0.extract.shift = and i64 %12, -4294967296
  %13 = add i64 %12, 12
  %14 = and i64 %13, 4294967295
  %15 = or disjoint i64 %14, %.sroa.26.0.extract.shift
  br label %_ZN7nanogui5ArrayIiLm2EEC2Ei.exit

_ZN7nanogui5ArrayIiLm2EEC2Ei.exit:                ; preds = %2, %_ZN7nanoguiplERKNS_5ArrayIiLm2EEES3_.exit.critedge
  %.sroa.011.0.insert.insert = phi i64 [ %15, %_ZN7nanoguiplERKNS_5ArrayIiLm2EEES3_.exit.critedge ], [ 0, %2 ]
  ret i64 %.sroa.011.0.insert.insert
}